target datalayout = "e-m:e-p270:32:32-p271:32:32-p272:64:64-i64:64-i128:128-f80:128-n8:16:32:64-S128"
target triple = "x86_64-pc-linux-gnu"

%class.SignatureStream = type { ptr, i32, i32, i32, i32, i8, i32, ptr, ptr }
%class.GrowableArrayBase = type { i32, i32 }
%class.GrowableArrayView = type { %class.GrowableArrayBase, ptr }

@_ZN6Symbol11_vm_symbolsE = external global [0 x ptr], align 8

; Function Attrs: mustprogress nounwind uwtable
define linkonce_odr hidden noundef nonnull align 8 dereferenceable(8) ptr @_ZN17GrowableArrayViewIP6SymbolE2atEi(ptr noundef nonnull align 8 dereferenceable(16) %0, i32 noundef %1) #1 comdat align 2 {
  %3 = alloca ptr, align 8
  %4 = alloca i32, align 4
  store ptr %0, ptr %3, align 8
  store i32 %1, ptr %4, align 4
  %5 = load ptr, ptr %3, align 8
  %6 = getelementptr inbounds %class.GrowableArrayView, ptr %5, i32 0, i32 1
  %7 = load ptr, ptr %6, align 8
  %8 = load i32, ptr %4, align 4
  %9 = sext i32 %8 to i64
  %10 = getelementptr inbounds ptr, ptr %7, i64 %9
  ret ptr %10
}

; Function Attrs: mustprogress nounwind uwtable
define linkonce_odr hidden noundef i32 @_ZNK17GrowableArrayBase6lengthEv(ptr noundef nonnull align 4 dereferenceable(8) %0) #1 comdat align 2 {
  %2 = alloca ptr, align 8
  store ptr %0, ptr %2, align 8
  %3 = load ptr, ptr %2, align 8
  %4 = getelementptr inbounds %class.GrowableArrayBase, ptr %3, i32 0, i32 0
  %5 = load i32, ptr %4, align 4
  ret i32 %5
}

; Function Attrs: mustprogress nounwind uwtable
define linkonce_odr hidden noundef ptr @_ZN9vmSymbols16java_lang_ObjectEv() #1 comdat align 2 {
  %1 = load ptr, ptr getelementptr inbounds ([0 x ptr], ptr @_ZN6Symbol11_vm_symbolsE, i64 0, i64 3), align 8
  ret ptr %1
}

; Function Attrs: mustprogress nounwind uwtable
define hidden void @_ZN15SignatureStreamD2Ev(ptr noundef nonnull align 8 dereferenceable(48) %0) unnamed_addr #1 align 2 {
  %2 = alloca ptr, align 8
  %3 = alloca i32, align 4
  store ptr %0, ptr %2, align 8
  %4 = load ptr, ptr %2, align 8
  %5 = getelementptr inbounds %class.SignatureStream, ptr %4, i32 0, i32 7
  %6 = load ptr, ptr %5, align 8
  %7 = call noundef ptr @_ZN9vmSymbols16java_lang_ObjectEv()
  %8 = icmp eq ptr %6, %7
  br i1 %8, label %9, label %10

9:                                                ; preds = %1
  br label %33

10:                                               ; preds = %1
  %11 = getelementptr inbounds %class.SignatureStream, ptr %4, i32 0, i32 7
  %12 = load ptr, ptr %11, align 8
  call void @_ZN6Symbol18decrement_refcountEv(ptr noundef nonnull align 4 dereferenceable(8) %12)
  %13 = getelementptr inbounds %class.SignatureStream, ptr %4, i32 0, i32 8
  %14 = load ptr, ptr %13, align 8
  %15 = icmp ne ptr %14, null
  br i1 %15, label %16, label %33

16:                                               ; preds = %10
  store i32 0, ptr %3, align 4
  br label %17

17:                                               ; preds = %29, %16
  %18 = load i32, ptr %3, align 4
  %19 = getelementptr inbounds %class.SignatureStream, ptr %4, i32 0, i32 8
  %20 = load ptr, ptr %19, align 8
  %21 = call noundef i32 @_ZNK17GrowableArrayBase6lengthEv(ptr noundef nonnull align 4 dereferenceable(8) %20)
  %22 = icmp slt i32 %18, %21
  br i1 %22, label %23, label %32

23:                                               ; preds = %17
  %24 = getelementptr inbounds %class.SignatureStream, ptr %4, i32 0, i32 8
  %25 = load ptr, ptr %24, align 8
  %26 = load i32, ptr %3, align 4
  %27 = call noundef nonnull align 8 dereferenceable(8) ptr @_ZN17GrowableArrayViewIP6SymbolE2atEi(ptr noundef nonnull align 8 dereferenceable(16) %25, i32 noundef %26)
  %28 = load ptr, ptr %27, align 8
  call void @_ZN6Symbol18decrement_refcountEv(ptr noundef nonnull align 4 dereferenceable(8) %28)
  br label %29

29:                                               ; preds = %23
  %30 = load i32, ptr %3, align 4
  %31 = add nsw i32 %30, 1
  store i32 %31, ptr %3, align 4
  br label %17, !llvm.loop !16

32:                                               ; preds = %17
  br label %33

33:                                               ; preds = %32, %10, %9
  ret void
}